; Function Attrs: mustprogress nofree norecurse nosync nounwind willreturn memory(readwrite, inaccessiblemem: none) uwtable
define hidden void @luaK_fixline(ptr noundef readonly captures(none) %0, i32 noundef %1) local_unnamed_addr #4 {
  %3 = load ptr, ptr %0, align 8, !tbaa !19
  %4 = getelementptr inbounds nuw i8, ptr %3, i64 40
  %5 = load ptr, ptr %4, align 8, !tbaa !56
  %6 = getelementptr inbounds nuw i8, ptr %0, i64 48
  %7 = load i32, ptr %6, align 8, !tbaa !4
  %8 = sext i32 %7 to i64
  %9 = getelementptr i32, ptr %5, i64 %8
  %10 = getelementptr i8, ptr %9, i64 -4
  store i32 %1, ptr %10, align 4, !tbaa !29
  ret void
}